target datalayout = "e-m:e-p270:32:32-p271:32:32-p272:64:64-i64:64-i128:128-f80:128-n8:16:32:64-S128"
target triple = "x86_64-pc-linux-gnu"

%struct.rb_data_type_struct = type { ptr, %struct.anon, ptr, ptr, i64 }
%struct.anon = type { ptr, ptr, ptr, ptr, [1 x ptr] }

@ossl_ssl_type = constant %struct.rb_data_type_struct { ptr @.str, %struct.anon { ptr @ossl_ssl_mark, ptr @ossl_ssl_free, ptr null, ptr null, [1 x ptr] zeroinitializer }, ptr null, ptr null, i64 33 }, align 8
@rb_eRuntimeError = external global i64, align 8
@.str.267 = private unnamed_addr constant [23 x i8] c"SSL is not initialized\00", align 1

; Function Attrs: inlinehint nounwind sspstrong uwtable
define internal i32 @ssl_started(ptr noundef %0) #4 {
  %2 = alloca ptr, align 8
  store ptr %0, ptr %2, align 8, !tbaa !10
  %3 = load ptr, ptr %2, align 8, !tbaa !10
  %4 = call ptr @SSL_get_rbio(ptr noundef %3)
  %5 = icmp ne ptr %4, null
  %6 = zext i1 %5 to i32
  ret i32 %6
}

; Function Attrs: nounwind sspstrong uwtable
define internal i64 @ossl_ssl_stop(i64 noundef %0) #0 {
  %2 = alloca i64, align 8
  %3 = alloca i64, align 8
  %4 = alloca ptr, align 8
  %5 = alloca i32, align 4
  %6 = alloca i32, align 4
  store i64 %0, ptr %3, align 8, !tbaa !14
  call void @llvm.lifetime.start.p0(i64 8, ptr %4) #20
  call void @llvm.lifetime.start.p0(i64 4, ptr %5) #20
  br label %7

7:                                                ; preds = %1
  %8 = load i64, ptr %3, align 8, !tbaa !14
  %9 = call ptr @rb_check_typeddata(i64 noundef %8, ptr noundef @ossl_ssl_type)
  store ptr %9, ptr %4, align 8, !tbaa !10
  %10 = load ptr, ptr %4, align 8, !tbaa !10
  %11 = icmp ne ptr %10, null
  br i1 %11, label %14, label %12

12:                                               ; preds = %7
  %13 = load i64, ptr @rb_eRuntimeError, align 8, !tbaa !14
  call void (i64, ptr, ...) @ossl_raise(i64 noundef %13, ptr noundef @.str.267) #22
  unreachable

14:                                               ; preds = %7
  br label %15

15:                                               ; preds = %14
  br label %16

16:                                               ; preds = %15
  %17 = load ptr, ptr %4, align 8, !tbaa !10
  %18 = call i32 @ssl_started(ptr noundef %17)
  %19 = icmp ne i32 %18, 0
  br i1 %19, label %21, label %20

20:                                               ; preds = %16
  store i64 4, ptr %2, align 8
  store i32 1, ptr %6, align 4
  br label %32

21:                                               ; preds = %16
  %22 = load ptr, ptr %4, align 8, !tbaa !10
  %23 = call i32 @SSL_shutdown(ptr noundef %22)
  store i32 %23, ptr %5, align 4, !tbaa !12
  %24 = load i32, ptr %5, align 4, !tbaa !12
  %25 = icmp eq i32 %24, 1
  br i1 %25, label %26, label %27

26:                                               ; preds = %21
  store i64 4, ptr %2, align 8
  store i32 1, ptr %6, align 4
  br label %32

27:                                               ; preds = %21
  %28 = load i32, ptr %5, align 4, !tbaa !12
  %29 = icmp eq i32 %28, 0
  br i1 %29, label %30, label %31

30:                                               ; preds = %27
  store i64 4, ptr %2, align 8
  store i32 1, ptr %6, align 4
  br label %32

31:                                               ; preds = %27
  call void @ossl_clear_error()
  store i64 4, ptr %2, align 8
  store i32 1, ptr %6, align 4
  br label %32

32:                                               ; preds = %31, %30, %26, %20
  call void @llvm.lifetime.end.p0(i64 4, ptr %5) #20
  call void @llvm.lifetime.end.p0(i64 8, ptr %4) #20
  %33 = load i64, ptr %2, align 8
  ret i64 %33
}