; Function Attrs: nounwind sspstrong uwtable
define internal noundef i64 @ossl_ssl_stop(i64 noundef %0) #0 {
  %2 = tail call ptr @rb_check_typeddata(i64 noundef %0, ptr noundef nonnull @ossl_ssl_type) #9
  %.not = icmp eq ptr %2, null
  br i1 %.not, label %3, label %5

3:                                                ; preds = %1
  %4 = load i64, ptr @rb_eRuntimeError, align 8, !tbaa !10
  tail call void (i64, ptr, ...) @ossl_raise(i64 noundef %4, ptr noundef nonnull @.str.267) #10
  unreachable

5:                                                ; preds = %1
  %6 = tail call ptr @SSL_get_rbio(ptr noundef nonnull %2) #9
  %.not8 = icmp eq ptr %6, null
  br i1 %.not8, label %10, label %7

7:                                                ; preds = %5
  %8 = tail call i32 @SSL_shutdown(ptr noundef nonnull %2) #9
  %switch = icmp ult i32 %8, 2
  br i1 %switch, label %10, label %9

9:                                                ; preds = %7
  tail call void @ossl_clear_error() #9
  br label %10

10:                                               ; preds = %7, %5, %9
  ret i64 4
}